(dp0
V 
p1
I0
sV'
p2
I1
sV-
p3
I2
sV,
p4
I3
sV/
p5
I4
sV.
p6
I5
sV\u0431
p7
I6
sV\u0430
p8
I7
sV\u0433
p9
I8
sV\u0432
p10
I9
sV\u0435
p11
I10
sV\u0434
p12
I11
sV\u0437
p13
I12
sV\u0436
p14
I13
sV\u0439
p15
I14
sV\u0438
p16
I15
sV\u043b
p17
I16
sV\u043a
p18
I17
sV\u043d
p19
I18
sV\u043c
p20
I19
sV\u043f
p21
I20
sV\u043e
p22
I21
sV\u0441
p23
I22
sV\u0440
p24
I23
sV\u0443
p25
I24
sV\u0442
p26
I25
sV\u0445
p27
I26
sV\u0444
p28
I27
sV\u0447
p29
I28
sV\u0446
p30
I29
sV\u0449
p31
I30
sV\u0448
p32
I31
sV\u044b
p33
I32
sV\u044a
p34
I33
sV\u044d
p35
I34
sV\u044c
p36
I35
sV\u044f
p37
I36
sV\u044e
p38
I37
sV]
p39
I38
s.